target datalayout = "e-m:e-p270:32:32-p271:32:32-p272:64:64-i64:64-i128:128-f80:128-n8:16:32:64-S128"
target triple = "x86_64-pc-linux-gnu"

%struct.Float4X4 = type { %union.anon }
%union.anon = type { %struct.anon }
%struct.anon = type { float, float, float, float, float, float, float, float, float, float, float, float, float, float, float, float }
%struct.SDL_Rect = type { i32, i32, i32, i32 }
%struct.VULKAN_RenderData = type { ptr, ptr, i8, ptr, i8, ptr, %struct.VkPhysicalDeviceProperties, %struct.VkPhysicalDeviceMemoryProperties, %struct.VkPhysicalDeviceFeatures, ptr, ptr, ptr, i8, i32, i32, ptr, ptr, ptr, i32, ptr, ptr, %struct.VkSurfaceCapabilitiesKHR, ptr, i8, i32, i32, ptr, [2 x ptr], ptr, [3 x ptr], [3 x ptr], ptr, ptr, [256 x %struct.VULKAN_Buffer], %struct.VULKAN_VertexShaderConstants, ptr, ptr, ptr, ptr, i32, i32, [8 x ptr], ptr, ptr, i32, i32, i32, ptr, ptr, i8, i8, i8, i32, i32, i32, %struct.VkSurfaceFormatKHR, %struct.VkExtent2D, i32, i32, ptr, ptr, ptr, ptr, ptr, ptr, i32, ptr, ptr, i32, i32, ptr, i32, i32, ptr, i8, i8, %struct.SDL_Rect, %struct.SDL_Rect, i32, i8, %struct.Float4X4, %struct.VkComponentMapping, i32, i8 }
%struct.VkPhysicalDeviceProperties = type { i32, i32, i32, i32, i32, [256 x i8], [16 x i8], %struct.VkPhysicalDeviceLimits, %struct.VkPhysicalDeviceSparseProperties }
%struct.VkPhysicalDeviceLimits = type { i32, i32, i32, i32, i32, i32, i32, i32, i32, i32, i32, i64, i64, i32, i32, i32, i32, i32, i32, i32, i32, i32, i32, i32, i32, i32, i32, i32, i32, i32, i32, i32, i32, i32, i32, i32, i32, i32, i32, i32, i32, i32, i32, i32, i32, i32, i32, i32, i32, i32, i32, i32, [3 x i32], i32, [3 x i32], i32, i32, i32, i32, i32, float, float, i32, [2 x i32], [2 x float], i32, i64, i64, i64, i64, i32, i32, i32, i32, float, float, i32, i32, i32, i32, i32, i32, i32, i32, i32, i32, i32, i32, i32, i32, i32, i32, float, i32, i32, i32, i32, [2 x float], [2 x float], float, float, i32, i32, i64, i64, i64 }
%struct.VkPhysicalDeviceSparseProperties = type { i32, i32, i32, i32, i32 }
%struct.VkPhysicalDeviceMemoryProperties = type { i32, [32 x %struct.VkMemoryType], i32, [16 x %struct.VkMemoryHeap] }
%struct.VkMemoryType = type { i32, i32 }
%struct.VkMemoryHeap = type { i64, i32 }
%struct.VkPhysicalDeviceFeatures = type { i32, i32, i32, i32, i32, i32, i32, i32, i32, i32, i32, i32, i32, i32, i32, i32, i32, i32, i32, i32, i32, i32, i32, i32, i32, i32, i32, i32, i32, i32, i32, i32, i32, i32, i32, i32, i32, i32, i32, i32, i32, i32, i32, i32, i32, i32, i32, i32, i32, i32, i32, i32, i32, i32, i32 }
%struct.VkSurfaceCapabilitiesKHR = type { i32, i32, %struct.VkExtent2D, %struct.VkExtent2D, %struct.VkExtent2D, i32, i32, i32, i32, i32 }
%struct.VULKAN_Buffer = type { ptr, ptr, i64, ptr }
%struct.VULKAN_VertexShaderConstants = type { %struct.Float4X4, %struct.Float4X4 }
%struct.VkSurfaceFormatKHR = type { i32, i32 }
%struct.VkExtent2D = type { i32, i32 }
%struct.VkComponentMapping = type { i32, i32, i32, i32 }
%struct.VkCommandBufferBeginInfo = type { i32, ptr, i32, ptr }

@vkFreeMemory = internal global ptr null, align 8
@vkResetCommandBuffer = internal global ptr null, align 8
@vkResetDescriptorPool = internal global ptr null, align 8
@vkBeginCommandBuffer = internal global ptr null, align 8
@vkDestroyBuffer = internal global ptr null, align 8

; Function Attrs: nounwind uwtable
define internal void @VULKAN_DestroyBuffer(ptr noundef %0, ptr noundef %1) #0 {
  %3 = alloca ptr, align 8
  %4 = alloca ptr, align 8
  store ptr %0, ptr %3, align 8
  store ptr %1, ptr %4, align 8
  %5 = load ptr, ptr %4, align 8
  %6 = getelementptr inbounds nuw %struct.VULKAN_Buffer, ptr %5, i32 0, i32 1
  %7 = load ptr, ptr %6, align 8
  %8 = icmp ne ptr %7, null
  br i1 %8, label %9, label %19

9:                                                ; preds = %2
  %10 = load ptr, ptr @vkDestroyBuffer, align 8
  %11 = load ptr, ptr %3, align 8
  %12 = getelementptr inbounds nuw %struct.VULKAN_RenderData, ptr %11, i32 0, i32 11
  %13 = load ptr, ptr %12, align 8
  %14 = load ptr, ptr %4, align 8
  %15 = getelementptr inbounds nuw %struct.VULKAN_Buffer, ptr %14, i32 0, i32 1
  %16 = load ptr, ptr %15, align 8
  call void %10(ptr noundef %13, ptr noundef %16, ptr noundef null)
  %17 = load ptr, ptr %4, align 8
  %18 = getelementptr inbounds nuw %struct.VULKAN_Buffer, ptr %17, i32 0, i32 1
  store ptr null, ptr %18, align 8
  br label %19

19:                                               ; preds = %9, %2
  %20 = load ptr, ptr %4, align 8
  %21 = getelementptr inbounds nuw %struct.VULKAN_Buffer, ptr %20, i32 0, i32 0
  %22 = load ptr, ptr %21, align 8
  %23 = icmp ne ptr %22, null
  br i1 %23, label %24, label %34

24:                                               ; preds = %19
  %25 = load ptr, ptr @vkFreeMemory, align 8
  %26 = load ptr, ptr %3, align 8
  %27 = getelementptr inbounds nuw %struct.VULKAN_RenderData, ptr %26, i32 0, i32 11
  %28 = load ptr, ptr %27, align 8
  %29 = load ptr, ptr %4, align 8
  %30 = getelementptr inbounds nuw %struct.VULKAN_Buffer, ptr %29, i32 0, i32 0
  %31 = load ptr, ptr %30, align 8
  call void %25(ptr noundef %28, ptr noundef %31, ptr noundef null)
  %32 = load ptr, ptr %4, align 8
  %33 = getelementptr inbounds nuw %struct.VULKAN_Buffer, ptr %32, i32 0, i32 0
  store ptr null, ptr %33, align 8
  br label %34

34:                                               ; preds = %24, %19
  %35 = load ptr, ptr %4, align 8
  call void @llvm.memset.p0.i64(ptr align 8 %35, i8 0, i64 32, i1 false)
  ret void
}

; Function Attrs: nounwind uwtable
define internal void @VULKAN_ResetCommandList(ptr noundef %0) #0 {
  %2 = alloca ptr, align 8
  %3 = alloca i32, align 4
  %4 = alloca %struct.VkCommandBufferBeginInfo, align 8
  %5 = alloca i32, align 4
  store ptr %0, ptr %2, align 8
  %6 = load ptr, ptr @vkResetCommandBuffer, align 8
  %7 = load ptr, ptr %2, align 8
  %8 = getelementptr inbounds nuw %struct.VULKAN_RenderData, ptr %7, i32 0, i32 19
  %9 = load ptr, ptr %8, align 8
  %10 = call i32 %6(ptr noundef %9, i32 noundef 0)
  call void @llvm.lifetime.start.p0(i64 4, ptr %3) #6
  store i32 0, ptr %3, align 4
  br label %11

11:                                               ; preds = %43, %1
  %12 = load i32, ptr %3, align 4
  %13 = load ptr, ptr %2, align 8
  %14 = getelementptr inbounds nuw %struct.VULKAN_RenderData, ptr %13, i32 0, i32 43
  %15 = load ptr, ptr %14, align 8
  %16 = load ptr, ptr %2, align 8
  %17 = getelementptr inbounds nuw %struct.VULKAN_RenderData, ptr %16, i32 0, i32 18
  %18 = load i32, ptr %17, align 8
  %19 = zext i32 %18 to i64
  %20 = getelementptr inbounds nuw i32, ptr %15, i64 %19
  %21 = load i32, ptr %20, align 4
  %22 = icmp ult i32 %12, %21
  br i1 %22, label %24, label %23

23:                                               ; preds = %11
  call void @llvm.lifetime.end.p0(i64 4, ptr %3) #6
  br label %46

24:                                               ; preds = %11
  %25 = load ptr, ptr @vkResetDescriptorPool, align 8
  %26 = load ptr, ptr %2, align 8
  %27 = getelementptr inbounds nuw %struct.VULKAN_RenderData, ptr %26, i32 0, i32 11
  %28 = load ptr, ptr %27, align 8
  %29 = load ptr, ptr %2, align 8
  %30 = getelementptr inbounds nuw %struct.VULKAN_RenderData, ptr %29, i32 0, i32 42
  %31 = load ptr, ptr %30, align 8
  %32 = load ptr, ptr %2, align 8
  %33 = getelementptr inbounds nuw %struct.VULKAN_RenderData, ptr %32, i32 0, i32 18
  %34 = load i32, ptr %33, align 8
  %35 = zext i32 %34 to i64
  %36 = getelementptr inbounds nuw ptr, ptr %31, i64 %35
  %37 = load ptr, ptr %36, align 8
  %38 = load i32, ptr %3, align 4
  %39 = zext i32 %38 to i64
  %40 = getelementptr inbounds nuw ptr, ptr %37, i64 %39
  %41 = load ptr, ptr %40, align 8
  %42 = call i32 %25(ptr noundef %28, ptr noundef %41, i32 noundef 0)
  br label %43

43:                                               ; preds = %24
  %44 = load i32, ptr %3, align 4
  %45 = add i32 %44, 1
  store i32 %45, ptr %3, align 4
  br label %11, !llvm.loop !18

46:                                               ; preds = %23
  call void @llvm.lifetime.start.p0(i64 32, ptr %4) #6
  call void @llvm.memset.p0.i64(ptr align 8 %4, i8 0, i64 32, i1 false)
  %47 = getelementptr inbounds nuw %struct.VkCommandBufferBeginInfo, ptr %4, i32 0, i32 0
  store i32 42, ptr %47, align 8
  %48 = getelementptr inbounds nuw %struct.VkCommandBufferBeginInfo, ptr %4, i32 0, i32 2
  store i32 0, ptr %48, align 8
  %49 = load ptr, ptr @vkBeginCommandBuffer, align 8
  %50 = load ptr, ptr %2, align 8
  %51 = getelementptr inbounds nuw %struct.VULKAN_RenderData, ptr %50, i32 0, i32 19
  %52 = load ptr, ptr %51, align 8
  %53 = call i32 %49(ptr noundef %52, ptr noundef %4)
  %54 = load ptr, ptr %2, align 8
  %55 = getelementptr inbounds nuw %struct.VULKAN_RenderData, ptr %54, i32 0, i32 48
  store ptr null, ptr %55, align 8
  %56 = load ptr, ptr %2, align 8
  %57 = getelementptr inbounds nuw %struct.VULKAN_RenderData, ptr %56, i32 0, i32 82
  store i32 0, ptr %57, align 4
  %58 = load ptr, ptr %2, align 8
  %59 = getelementptr inbounds nuw %struct.VULKAN_RenderData, ptr %58, i32 0, i32 83
  store i8 0, ptr %59, align 8
  %60 = load ptr, ptr %2, align 8
  %61 = getelementptr inbounds nuw %struct.VULKAN_RenderData, ptr %60, i32 0, i32 74
  store i8 1, ptr %61, align 8
  %62 = load ptr, ptr %2, align 8
  %63 = getelementptr inbounds nuw %struct.VULKAN_RenderData, ptr %62, i32 0, i32 45
  store i32 0, ptr %63, align 4
  %64 = load ptr, ptr %2, align 8
  %65 = getelementptr inbounds nuw %struct.VULKAN_RenderData, ptr %64, i32 0, i32 44
  store i32 0, ptr %65, align 8
  %66 = load ptr, ptr %2, align 8
  %67 = getelementptr inbounds nuw %struct.VULKAN_RenderData, ptr %66, i32 0, i32 40
  store i32 -1, ptr %67, align 4
  %68 = load ptr, ptr %2, align 8
  %69 = getelementptr inbounds nuw %struct.VULKAN_RenderData, ptr %68, i32 0, i32 39
  store i32 0, ptr %69, align 8
  call void @llvm.lifetime.start.p0(i64 4, ptr %5) #6
  store i32 0, ptr %5, align 4
  br label %70

70:                                               ; preds = %97, %46
  %71 = load i32, ptr %5, align 4
  %72 = load ptr, ptr %2, align 8
  %73 = getelementptr inbounds nuw %struct.VULKAN_RenderData, ptr %72, i32 0, i32 36
  %74 = load ptr, ptr %73, align 8
  %75 = load ptr, ptr %2, align 8
  %76 = getelementptr inbounds nuw %struct.VULKAN_RenderData, ptr %75, i32 0, i32 18
  %77 = load i32, ptr %76, align 8
  %78 = zext i32 %77 to i64
  %79 = getelementptr inbounds nuw i32, ptr %74, i64 %78
  %80 = load i32, ptr %79, align 4
  %81 = icmp slt i32 %71, %80
  br i1 %81, label %83, label %82

82:                                               ; preds = %70
  call void @llvm.lifetime.end.p0(i64 4, ptr %5) #6
  br label %100

83:                                               ; preds = %70
  %84 = load ptr, ptr %2, align 8
  %85 = load ptr, ptr %2, align 8
  %86 = getelementptr inbounds nuw %struct.VULKAN_RenderData, ptr %85, i32 0, i32 35
  %87 = load ptr, ptr %86, align 8
  %88 = load ptr, ptr %2, align 8
  %89 = getelementptr inbounds nuw %struct.VULKAN_RenderData, ptr %88, i32 0, i32 18
  %90 = load i32, ptr %89, align 8
  %91 = zext i32 %90 to i64
  %92 = getelementptr inbounds nuw ptr, ptr %87, i64 %91
  %93 = load ptr, ptr %92, align 8
  %94 = load i32, ptr %5, align 4
  %95 = sext i32 %94 to i64
  %96 = getelementptr inbounds %struct.VULKAN_Buffer, ptr %93, i64 %95
  call void @VULKAN_DestroyBuffer(ptr noundef %84, ptr noundef %96)
  br label %97

97:                                               ; preds = %83
  %98 = load i32, ptr %5, align 4
  %99 = add nsw i32 %98, 1
  store i32 %99, ptr %5, align 4
  br label %70, !llvm.loop !19

100:                                              ; preds = %82
  %101 = load ptr, ptr %2, align 8
  %102 = getelementptr inbounds nuw %struct.VULKAN_RenderData, ptr %101, i32 0, i32 36
  %103 = load ptr, ptr %102, align 8
  %104 = load ptr, ptr %2, align 8
  %105 = getelementptr inbounds nuw %struct.VULKAN_RenderData, ptr %104, i32 0, i32 18
  %106 = load i32, ptr %105, align 8
  %107 = zext i32 %106 to i64
  %108 = getelementptr inbounds nuw i32, ptr %103, i64 %107
  store i32 0, ptr %108, align 4
  call void @llvm.lifetime.end.p0(i64 32, ptr %4) #6
  ret void
}