; Function Attrs: nounwind uwtable
define internal fastcc void @VULKAN_ResetCommandList(ptr noundef captures(none) %0) unnamed_addr #0 {
  %2 = alloca %struct.VkCommandBufferBeginInfo, align 8
  %3 = load ptr, ptr @vkResetCommandBuffer, align 8
  %4 = getelementptr inbounds nuw i8, ptr %0, i64 1688
  %5 = load ptr, ptr %4, align 8
  %6 = tail call i32 %3(ptr noundef %5, i32 noundef 0) #8
  %7 = getelementptr inbounds nuw i8, ptr %0, i64 10312
  %8 = getelementptr inbounds nuw i8, ptr %0, i64 1680
  %9 = load ptr, ptr %7, align 8
  %10 = load i32, ptr %8, align 8
  %11 = zext i32 %10 to i64
  %12 = getelementptr inbounds nuw i32, ptr %9, i64 %11
  %13 = load i32, ptr %12, align 4
  %.not = icmp eq i32 %13, 0
  br i1 %.not, label %._crit_edge, label %.lr.ph

.lr.ph:                                           ; preds = %1
  %14 = getelementptr inbounds nuw i8, ptr %0, i64 1632
  %15 = getelementptr inbounds nuw i8, ptr %0, i64 10304
  br label %36

._crit_edge:                                      ; preds = %36, %1
  call void @llvm.lifetime.start.p0(i64 32, ptr nonnull %2) #8
  call void @llvm.memset.p0.i64(ptr noundef nonnull align 8 dereferenceable(32) %2, i8 0, i64 32, i1 false)
  store i32 42, ptr %2, align 8
  %16 = load ptr, ptr @vkBeginCommandBuffer, align 8
  %17 = load ptr, ptr %4, align 8
  %18 = call i32 %16(ptr noundef %17, ptr noundef nonnull %2) #8
  %19 = getelementptr inbounds nuw i8, ptr %0, i64 10344
  store ptr null, ptr %19, align 8
  %20 = getelementptr inbounds nuw i8, ptr %0, i64 10620
  store i32 0, ptr %20, align 4
  %21 = getelementptr inbounds nuw i8, ptr %0, i64 10624
  store i8 0, ptr %21, align 8
  %22 = getelementptr inbounds nuw i8, ptr %0, i64 10496
  store i8 1, ptr %22, align 8
  %23 = getelementptr inbounds nuw i8, ptr %0, i64 10324
  store i32 0, ptr %23, align 4
  %24 = getelementptr inbounds nuw i8, ptr %0, i64 10320
  store i32 0, ptr %24, align 8
  %25 = getelementptr inbounds nuw i8, ptr %0, i64 10236
  store i32 -1, ptr %25, align 4
  %26 = getelementptr inbounds nuw i8, ptr %0, i64 10232
  store i32 0, ptr %26, align 8
  %27 = getelementptr inbounds nuw i8, ptr %0, i64 10208
  %28 = load ptr, ptr %27, align 8
  %29 = load i32, ptr %8, align 8
  %30 = zext i32 %29 to i64
  %31 = getelementptr inbounds nuw i32, ptr %28, i64 %30
  %32 = load i32, ptr %31, align 4
  %33 = icmp sgt i32 %32, 0
  br i1 %33, label %.lr.ph34, label %._crit_edge35

.lr.ph34:                                         ; preds = %._crit_edge
  %34 = getelementptr inbounds nuw i8, ptr %0, i64 10200
  %35 = getelementptr inbounds nuw i8, ptr %0, i64 1632
  br label %54

36:                                               ; preds = %.lr.ph, %36
  %indvars.iv = phi i64 [ 0, %.lr.ph ], [ %indvars.iv.next, %36 ]
  %37 = phi i64 [ %11, %.lr.ph ], [ %48, %36 ]
  %38 = load ptr, ptr @vkResetDescriptorPool, align 8
  %39 = load ptr, ptr %14, align 8
  %40 = load ptr, ptr %15, align 8
  %41 = getelementptr inbounds nuw ptr, ptr %40, i64 %37
  %42 = load ptr, ptr %41, align 8
  %43 = getelementptr inbounds nuw ptr, ptr %42, i64 %indvars.iv
  %44 = load ptr, ptr %43, align 8
  %45 = tail call i32 %38(ptr noundef %39, ptr noundef %44, i32 noundef 0) #8
  %indvars.iv.next = add nuw nsw i64 %indvars.iv, 1
  %46 = load ptr, ptr %7, align 8
  %47 = load i32, ptr %8, align 8
  %48 = zext i32 %47 to i64
  %49 = getelementptr inbounds nuw i32, ptr %46, i64 %48
  %50 = load i32, ptr %49, align 4
  %51 = zext i32 %50 to i64
  %52 = icmp samesign ult i64 %indvars.iv.next, %51
  br i1 %52, label %36, label %._crit_edge, !llvm.loop !39

._crit_edge35:                                    ; preds = %VULKAN_DestroyBuffer.exit, %._crit_edge
  %.lcssa31 = phi i64 [ %30, %._crit_edge ], [ %72, %VULKAN_DestroyBuffer.exit ]
  %.lcssa30 = phi ptr [ %28, %._crit_edge ], [ %70, %VULKAN_DestroyBuffer.exit ]
  %53 = getelementptr inbounds nuw i32, ptr %.lcssa30, i64 %.lcssa31
  store i32 0, ptr %53, align 4
  call void @llvm.lifetime.end.p0(i64 32, ptr nonnull %2) #8
  ret void

54:                                               ; preds = %.lr.ph34, %VULKAN_DestroyBuffer.exit
  %indvars.iv39 = phi i64 [ 0, %.lr.ph34 ], [ %indvars.iv.next40, %VULKAN_DestroyBuffer.exit ]
  %55 = phi i64 [ %30, %.lr.ph34 ], [ %72, %VULKAN_DestroyBuffer.exit ]
  %56 = load ptr, ptr %34, align 8
  %57 = getelementptr inbounds nuw ptr, ptr %56, i64 %55
  %58 = load ptr, ptr %57, align 8
  %59 = getelementptr inbounds nuw %struct.VULKAN_Buffer, ptr %58, i64 %indvars.iv39
  %60 = getelementptr inbounds nuw i8, ptr %59, i64 8
  %61 = load ptr, ptr %60, align 8
  %.not.i = icmp eq ptr %61, null
  br i1 %.not.i, label %65, label %62

62:                                               ; preds = %54
  %63 = load ptr, ptr @vkDestroyBuffer, align 8
  %64 = load ptr, ptr %35, align 8
  call void %63(ptr noundef %64, ptr noundef nonnull %61, ptr noundef null) #8
  store ptr null, ptr %60, align 8
  br label %65

65:                                               ; preds = %62, %54
  %66 = load ptr, ptr %59, align 8
  %.not10.i = icmp eq ptr %66, null
  br i1 %.not10.i, label %VULKAN_DestroyBuffer.exit, label %67

67:                                               ; preds = %65
  %68 = load ptr, ptr @vkFreeMemory, align 8
  %69 = load ptr, ptr %35, align 8
  call void %68(ptr noundef %69, ptr noundef nonnull %66, ptr noundef null) #8
  br label %VULKAN_DestroyBuffer.exit

VULKAN_DestroyBuffer.exit:                        ; preds = %65, %67
  call void @llvm.memset.p0.i64(ptr noundef nonnull align 8 dereferenceable(32) %59, i8 0, i64 32, i1 false)
  %indvars.iv.next40 = add nuw nsw i64 %indvars.iv39, 1
  %70 = load ptr, ptr %27, align 8
  %71 = load i32, ptr %8, align 8
  %72 = zext i32 %71 to i64
  %73 = getelementptr inbounds nuw i32, ptr %70, i64 %72
  %74 = load i32, ptr %73, align 4
  %75 = sext i32 %74 to i64
  %76 = icmp slt i64 %indvars.iv.next40, %75
  br i1 %76, label %54, label %._crit_edge35, !llvm.loop !40
}